; Function Attrs: nounwind uwtable
define internal range(i32 -1, 1) i32 @H5C__json_write_set_cache_config_log_msg(ptr noundef readonly captures(none) %0, ptr readnone captures(none) %1, i32 noundef %2) #0 {
  %4 = load i8, ptr @H5C_init_g, align 1, !tbaa !3, !range !7, !noundef !8
  %5 = trunc nuw i8 %4 to i1
  %6 = load i8, ptr @H5_libterm_g, align 1, !range !7
  %7 = trunc nuw i8 %6 to i1
  %8 = xor i1 %7, true
  %9 = select i1 %5, i1 true, i1 %8
  br i1 %9, label %10, label %H5C__json_write_log_message.exit.thread, !prof !9

10:                                               ; preds = %3
  %11 = getelementptr inbounds nuw i8, ptr %0, i64 8
  %12 = load ptr, ptr %11, align 8, !tbaa !15
  %13 = tail call i64 @time(ptr noundef null) #10
  %14 = tail call i32 (ptr, i64, ptr, ...) @snprintf(ptr noundef nonnull dereferenceable(1) %12, i64 noundef 1024, ptr noundef nonnull @.str.33, i64 noundef %13, i32 noundef %2) #10
  %15 = load i8, ptr @H5C_init_g, align 1, !tbaa !3, !range !7, !noundef !8
  %16 = trunc nuw i8 %15 to i1
  %17 = load i8, ptr @H5_libterm_g, align 1, !range !7
  %18 = trunc nuw i8 %17 to i1
  %19 = xor i1 %18, true
  %20 = select i1 %16, i1 true, i1 %19
  br i1 %20, label %21, label %H5C__json_write_log_message.exit.thread, !prof !9

21:                                               ; preds = %10
  %22 = load ptr, ptr %11, align 8, !tbaa !15
  %23 = tail call i64 @strlen(ptr noundef nonnull dereferenceable(1) %22) #11
  %24 = trunc i64 %23 to i32
  %25 = load ptr, ptr %0, align 8, !tbaa !21
  %26 = tail call i32 (ptr, ptr, ...) @fprintf(ptr noundef %25, ptr noundef nonnull @.str.3, ptr noundef nonnull %22) #10
  %.not.i = icmp eq i32 %26, %24
  br i1 %.not.i, label %27, label %29

27:                                               ; preds = %21
  %28 = load ptr, ptr %11, align 8, !tbaa !15
  tail call void @llvm.memset.p0.i64(ptr align 1 %28, i8 0, i64 %23, i1 false)
  br label %H5C__json_write_log_message.exit.thread

29:                                               ; preds = %21
  %30 = load i64, ptr @H5E_CACHE_g, align 8, !tbaa !19
  %31 = load i64, ptr @H5E_LOGGING_g, align 8, !tbaa !19
  %32 = tail call i32 (ptr, ptr, i32, i64, i64, ptr, ...) @H5E_printf_stack(ptr noundef nonnull @.str, ptr noundef nonnull @__func__.H5C__json_write_log_message, i32 noundef 173, i64 noundef %30, i64 noundef %31, ptr noundef nonnull @.str.11) #10
  %33 = load i64, ptr @H5E_CACHE_g, align 8, !tbaa !19
  %34 = load i64, ptr @H5E_LOGGING_g, align 8, !tbaa !19
  %35 = tail call i32 (ptr, ptr, i32, i64, i64, ptr, ...) @H5E_printf_stack(ptr noundef nonnull @.str, ptr noundef nonnull @__func__.H5C__json_write_set_cache_config_log_msg, i32 noundef 1188, i64 noundef %33, i64 noundef %34, ptr noundef nonnull @.str.10) #10
  br label %H5C__json_write_log_message.exit.thread

H5C__json_write_log_message.exit.thread:          ; preds = %10, %27, %29, %3
  %.0 = phi i32 [ -1, %29 ], [ 0, %3 ], [ 0, %27 ], [ 0, %10 ]
  ret i32 %.0
}